target datalayout = "e-m:e-p270:32:32-p271:32:32-p272:64:64-i64:64-i128:128-f80:128-n8:16:32:64-S128"
target triple = "x86_64-unknown-linux-gnu"

; Function Attrs: mustprogress nounwind uwtable
define void @_ZN5arrow8internal26SparseTensorConverterMixin11AssignIndexEPhli(ptr noundef %indices, i64 noundef %val, i32 noundef %elsize) #0 align 2 {
entry:
  %indices.addr = alloca ptr, align 8
  %val.addr = alloca i64, align 8
  %elsize.addr = alloca i32, align 4
  store ptr %indices, ptr %indices.addr, align 8
  store i64 %val, ptr %val.addr, align 8
  store i32 %elsize, ptr %elsize.addr, align 4
  %0 = load i32, ptr %elsize.addr, align 4
  switch i32 %0, label %sw.default [
    i32 1, label %sw.bb
    i32 2, label %sw.bb1
    i32 4, label %sw.bb3
    i32 8, label %sw.bb5
  ]

sw.bb:                                            ; preds = %entry
  %1 = load i64, ptr %val.addr, align 8
  %conv = trunc i64 %1 to i8
  %2 = load ptr, ptr %indices.addr, align 8
  store i8 %conv, ptr %2, align 1
  br label %sw.epilog

sw.bb1:                                           ; preds = %entry
  %3 = load i64, ptr %val.addr, align 8
  %conv2 = trunc i64 %3 to i16
  %4 = load ptr, ptr %indices.addr, align 8
  store i16 %conv2, ptr %4, align 2
  br label %sw.epilog

sw.bb3:                                           ; preds = %entry
  %5 = load i64, ptr %val.addr, align 8
  %conv4 = trunc i64 %5 to i32
  %6 = load ptr, ptr %indices.addr, align 8
  store i32 %conv4, ptr %6, align 4
  br label %sw.epilog

sw.bb5:                                           ; preds = %entry
  %7 = load i64, ptr %val.addr, align 8
  %8 = load ptr, ptr %indices.addr, align 8
  store i64 %7, ptr %8, align 8
  br label %sw.epilog

sw.default:                                       ; preds = %entry
  br label %sw.epilog

sw.epilog:                                        ; preds = %sw.default, %sw.bb5, %sw.bb3, %sw.bb1, %sw.bb
  ret void
}