; Function Attrs: mustprogress nofree norecurse nosync nounwind willreturn memory(argmem: write) uwtable
define void @_ZN5arrow8internal26SparseTensorConverterMixin11AssignIndexEPhli(ptr nocapture noundef writeonly %indices, i64 noundef %val, i32 noundef %elsize) local_unnamed_addr #0 align 2 {
entry:
  switch i32 %elsize, label %sw.epilog [
    i32 1, label %sw.bb
    i32 2, label %sw.bb1
    i32 4, label %sw.bb3
    i32 8, label %sw.bb5
  ]

sw.bb:                                            ; preds = %entry
  %conv = trunc i64 %val to i8
  store i8 %conv, ptr %indices, align 1
  br label %sw.epilog

sw.bb1:                                           ; preds = %entry
  %conv2 = trunc i64 %val to i16
  store i16 %conv2, ptr %indices, align 2
  br label %sw.epilog

sw.bb3:                                           ; preds = %entry
  %conv4 = trunc i64 %val to i32
  store i32 %conv4, ptr %indices, align 4
  br label %sw.epilog

sw.bb5:                                           ; preds = %entry
  store i64 %val, ptr %indices, align 8
  br label %sw.epilog

sw.epilog:                                        ; preds = %entry, %sw.bb5, %sw.bb3, %sw.bb1, %sw.bb
  ret void
}